target datalayout = "e-m:e-p270:32:32-p271:32:32-p272:64:64-i64:64-i128:128-f80:128-n8:16:32:64-S128"
target triple = "x86_64-pc-linux-gnu"

%struct.Vec_Str_t_ = type { i32, i32, ptr }
%union.anon.0 = type { float }

; Function Attrs: inlinehint nounwind uwtable
define internal void @Vec_StrGrow(ptr noundef %0, i32 noundef %1) #3 {
  %3 = alloca ptr, align 8
  %4 = alloca i32, align 4
  store ptr %0, ptr %3, align 8, !tbaa !76
  store i32 %1, ptr %4, align 4, !tbaa !53
  %5 = load ptr, ptr %3, align 8, !tbaa !76
  %6 = getelementptr inbounds nuw %struct.Vec_Str_t_, ptr %5, i32 0, i32 0
  %7 = load i32, ptr %6, align 8, !tbaa !109
  %8 = load i32, ptr %4, align 4, !tbaa !53
  %9 = icmp sge i32 %7, %8
  br i1 %9, label %10, label %11

10:                                               ; preds = %2
  br label %36

11:                                               ; preds = %2
  %12 = load ptr, ptr %3, align 8, !tbaa !76
  %13 = getelementptr inbounds nuw %struct.Vec_Str_t_, ptr %12, i32 0, i32 2
  %14 = load ptr, ptr %13, align 8, !tbaa !113
  %15 = icmp ne ptr %14, null
  br i1 %15, label %16, label %24

16:                                               ; preds = %11
  %17 = load ptr, ptr %3, align 8, !tbaa !76
  %18 = getelementptr inbounds nuw %struct.Vec_Str_t_, ptr %17, i32 0, i32 2
  %19 = load ptr, ptr %18, align 8, !tbaa !113
  %20 = load i32, ptr %4, align 4, !tbaa !53
  %21 = sext i32 %20 to i64
  %22 = mul i64 1, %21
  %23 = call ptr @realloc(ptr noundef %19, i64 noundef %22) #15
  br label %29

24:                                               ; preds = %11
  %25 = load i32, ptr %4, align 4, !tbaa !53
  %26 = sext i32 %25 to i64
  %27 = mul i64 1, %26
  %28 = call noalias ptr @malloc(i64 noundef %27) #12
  br label %29

29:                                               ; preds = %24, %16
  %30 = phi ptr [ %23, %16 ], [ %28, %24 ]
  %31 = load ptr, ptr %3, align 8, !tbaa !76
  %32 = getelementptr inbounds nuw %struct.Vec_Str_t_, ptr %31, i32 0, i32 2
  store ptr %30, ptr %32, align 8, !tbaa !113
  %33 = load i32, ptr %4, align 4, !tbaa !53
  %34 = load ptr, ptr %3, align 8, !tbaa !76
  %35 = getelementptr inbounds nuw %struct.Vec_Str_t_, ptr %34, i32 0, i32 0
  store i32 %33, ptr %35, align 8, !tbaa !109
  br label %36

36:                                               ; preds = %29, %10
  ret void
}

; Function Attrs: inlinehint nounwind uwtable
define internal void @Vec_StrPush(ptr noundef %0, i8 noundef signext %1) #3 {
  %3 = alloca ptr, align 8
  %4 = alloca i8, align 1
  store ptr %0, ptr %3, align 8, !tbaa !76
  store i8 %1, ptr %4, align 1, !tbaa !94
  %5 = load ptr, ptr %3, align 8, !tbaa !76
  %6 = getelementptr inbounds nuw %struct.Vec_Str_t_, ptr %5, i32 0, i32 1
  %7 = load i32, ptr %6, align 4, !tbaa !111
  %8 = load ptr, ptr %3, align 8, !tbaa !76
  %9 = getelementptr inbounds nuw %struct.Vec_Str_t_, ptr %8, i32 0, i32 0
  %10 = load i32, ptr %9, align 8, !tbaa !109
  %11 = icmp eq i32 %7, %10
  br i1 %11, label %12, label %26

12:                                               ; preds = %2
  %13 = load ptr, ptr %3, align 8, !tbaa !76
  %14 = getelementptr inbounds nuw %struct.Vec_Str_t_, ptr %13, i32 0, i32 0
  %15 = load i32, ptr %14, align 8, !tbaa !109
  %16 = icmp slt i32 %15, 16
  br i1 %16, label %17, label %19

17:                                               ; preds = %12
  %18 = load ptr, ptr %3, align 8, !tbaa !76
  call void @Vec_StrGrow(ptr noundef %18, i32 noundef 16)
  br label %25

19:                                               ; preds = %12
  %20 = load ptr, ptr %3, align 8, !tbaa !76
  %21 = load ptr, ptr %3, align 8, !tbaa !76
  %22 = getelementptr inbounds nuw %struct.Vec_Str_t_, ptr %21, i32 0, i32 0
  %23 = load i32, ptr %22, align 8, !tbaa !109
  %24 = mul nsw i32 2, %23
  call void @Vec_StrGrow(ptr noundef %20, i32 noundef %24)
  br label %25

25:                                               ; preds = %19, %17
  br label %26

26:                                               ; preds = %25, %2
  %27 = load i8, ptr %4, align 1, !tbaa !94
  %28 = load ptr, ptr %3, align 8, !tbaa !76
  %29 = getelementptr inbounds nuw %struct.Vec_Str_t_, ptr %28, i32 0, i32 2
  %30 = load ptr, ptr %29, align 8, !tbaa !113
  %31 = load ptr, ptr %3, align 8, !tbaa !76
  %32 = getelementptr inbounds nuw %struct.Vec_Str_t_, ptr %31, i32 0, i32 1
  %33 = load i32, ptr %32, align 4, !tbaa !111
  %34 = add nsw i32 %33, 1
  store i32 %34, ptr %32, align 4, !tbaa !111
  %35 = sext i32 %33 to i64
  %36 = getelementptr inbounds i8, ptr %30, i64 %35
  store i8 %27, ptr %36, align 1, !tbaa !94
  ret void
}

; Function Attrs: inlinehint nounwind uwtable
define internal void @Vec_StrPutF(ptr noundef %0, float noundef %1) #3 {
  %3 = alloca ptr, align 8
  %4 = alloca float, align 4
  %5 = alloca %union.anon.0, align 4
  store ptr %0, ptr %3, align 8, !tbaa !76
  store float %1, ptr %4, align 4, !tbaa !138
  call void @llvm.lifetime.start.p0(i64 4, ptr %5) #11
  %6 = load float, ptr %4, align 4, !tbaa !138
  store float %6, ptr %5, align 4, !tbaa !94
  %7 = load ptr, ptr %3, align 8, !tbaa !76
  %8 = getelementptr inbounds [4 x i8], ptr %5, i64 0, i64 0
  %9 = load i8, ptr %8, align 4, !tbaa !94
  call void @Vec_StrPush(ptr noundef %7, i8 noundef signext %9)
  %10 = load ptr, ptr %3, align 8, !tbaa !76
  %11 = getelementptr inbounds [4 x i8], ptr %5, i64 0, i64 1
  %12 = load i8, ptr %11, align 1, !tbaa !94
  call void @Vec_StrPush(ptr noundef %10, i8 noundef signext %12)
  %13 = load ptr, ptr %3, align 8, !tbaa !76
  %14 = getelementptr inbounds [4 x i8], ptr %5, i64 0, i64 2
  %15 = load i8, ptr %14, align 2, !tbaa !94
  call void @Vec_StrPush(ptr noundef %13, i8 noundef signext %15)
  %16 = load ptr, ptr %3, align 8, !tbaa !76
  %17 = getelementptr inbounds [4 x i8], ptr %5, i64 0, i64 3
  %18 = load i8, ptr %17, align 1, !tbaa !94
  call void @Vec_StrPush(ptr noundef %16, i8 noundef signext %18)
  call void @llvm.lifetime.end.p0(i64 4, ptr %5) #11
  ret void
}